target datalayout = "e-m:e-p270:32:32-p271:32:32-p272:64:64-i64:64-i128:128-f80:128-n8:16:32:64-S128"
target triple = "x86_64-pc-linux-gnu"

%struct.SDL_GUID = type { [16 x i8] }
%struct.SDL_VirtualJoystickDesc = type { i32, i16, i16, i16, i16, i16, i16, i16, i16, i16, i16, [2 x i16], i32, i32, ptr, ptr, ptr, ptr, ptr, ptr, ptr, ptr, ptr, ptr, ptr, ptr }
%struct.joystick_hwdata = type { i32, i8, ptr, i32, %struct.SDL_GUID, %struct.SDL_VirtualJoystickDesc, i32, ptr, ptr, ptr, ptr, ptr, ptr, i8, i32, i32, ptr, ptr, ptr }
%struct.SDL_Joystick = type { i32, ptr, ptr, ptr, %struct.SDL_GUID, i16, i64, i8, i8, i32, ptr, i32, ptr, i32, ptr, i32, ptr, i32, ptr, i32, i32, ptr, i16, i16, i64, i64, i16, i16, i64, i64, i8, i8, i8, i64, i8, i32, i32, i32, i8, i32, ptr, i32, ptr, [3 x [3 x float]], i64, ptr, ptr, i32, i32, ptr }

@.str.27 = private unnamed_addr constant [32 x i8] c"That operation is not supported\00", align 1
@.str.28 = private unnamed_addr constant [35 x i8] c"Rumble failed, device disconnected\00", align 1

; Function Attrs: nounwind uwtable
define internal zeroext i1 @VIRTUAL_JoystickRumbleTriggers(ptr noundef %0, i16 noundef zeroext %1, i16 noundef zeroext %2) #0 {
  %4 = alloca ptr, align 8
  %5 = alloca i16, align 2
  %6 = alloca i16, align 2
  %7 = alloca i8, align 1
  %8 = alloca ptr, align 8
  store ptr %0, ptr %4, align 8
  store i16 %1, ptr %5, align 2
  store i16 %2, ptr %6, align 2
  call void @llvm.lifetime.start.p0(i64 1, ptr %7) #7
  call void @SDL_AssertJoysticksLocked()
  %9 = load ptr, ptr %4, align 8
  %10 = getelementptr inbounds nuw %struct.SDL_Joystick, ptr %9, i32 0, i32 46
  %11 = load ptr, ptr %10, align 8
  %12 = icmp ne ptr %11, null
  br i1 %12, label %13, label %39

13:                                               ; preds = %3
  call void @llvm.lifetime.start.p0(i64 8, ptr %8) #7
  %14 = load ptr, ptr %4, align 8
  %15 = getelementptr inbounds nuw %struct.SDL_Joystick, ptr %14, i32 0, i32 46
  %16 = load ptr, ptr %15, align 8
  store ptr %16, ptr %8, align 8
  %17 = load ptr, ptr %8, align 8
  %18 = getelementptr inbounds nuw %struct.joystick_hwdata, ptr %17, i32 0, i32 5
  %19 = getelementptr inbounds nuw %struct.SDL_VirtualJoystickDesc, ptr %18, i32 0, i32 21
  %20 = load ptr, ptr %19, align 8
  %21 = icmp ne ptr %20, null
  br i1 %21, label %22, label %35

22:                                               ; preds = %13
  %23 = load ptr, ptr %8, align 8
  %24 = getelementptr inbounds nuw %struct.joystick_hwdata, ptr %23, i32 0, i32 5
  %25 = getelementptr inbounds nuw %struct.SDL_VirtualJoystickDesc, ptr %24, i32 0, i32 21
  %26 = load ptr, ptr %25, align 8
  %27 = load ptr, ptr %8, align 8
  %28 = getelementptr inbounds nuw %struct.joystick_hwdata, ptr %27, i32 0, i32 5
  %29 = getelementptr inbounds nuw %struct.SDL_VirtualJoystickDesc, ptr %28, i32 0, i32 17
  %30 = load ptr, ptr %29, align 8
  %31 = load i16, ptr %5, align 2
  %32 = load i16, ptr %6, align 2
  %33 = call zeroext i1 %26(ptr noundef %30, i16 noundef zeroext %31, i16 noundef zeroext %32)
  %34 = zext i1 %33 to i8
  store i8 %34, ptr %7, align 1
  br label %38

35:                                               ; preds = %13
  %36 = call zeroext i1 (ptr, ...) @SDL_SetError_REAL(ptr noundef @.str.27)
  %37 = zext i1 %36 to i8
  store i8 %37, ptr %7, align 1
  br label %38

38:                                               ; preds = %35, %22
  call void @llvm.lifetime.end.p0(i64 8, ptr %8) #7
  br label %42

39:                                               ; preds = %3
  %40 = call zeroext i1 (ptr, ...) @SDL_SetError_REAL(ptr noundef @.str.28)
  %41 = zext i1 %40 to i8
  store i8 %41, ptr %7, align 1
  br label %42

42:                                               ; preds = %39, %38
  %43 = load i8, ptr %7, align 1, !range !12, !noundef !13
  %44 = trunc i8 %43 to i1
  call void @llvm.lifetime.end.p0(i64 1, ptr %7) #7
  ret i1 %44
}