; Function Attrs: nounwind uwtable
define internal zeroext i1 @VIRTUAL_JoystickRumbleTriggers(ptr noundef readonly captures(none) %0, i16 noundef zeroext %1, i16 noundef zeroext %2) #0 {
  tail call void @SDL_AssertJoysticksLocked() #8
  %4 = getelementptr inbounds nuw i8, ptr %0, i64 328
  %5 = load ptr, ptr %4, align 8
  %.not = icmp eq ptr %5, null
  br i1 %.not, label %15, label %6

6:                                                ; preds = %3
  %7 = getelementptr inbounds nuw i8, ptr %5, i64 136
  %8 = load ptr, ptr %7, align 8
  %.not9 = icmp eq ptr %8, null
  br i1 %.not9, label %13, label %9

9:                                                ; preds = %6
  %10 = getelementptr inbounds nuw i8, ptr %5, i64 104
  %11 = load ptr, ptr %10, align 8
  %12 = tail call zeroext i1 %8(ptr noundef %11, i16 noundef zeroext %1, i16 noundef zeroext %2) #8
  br label %17

13:                                               ; preds = %6
  %14 = tail call zeroext i1 (ptr, ...) @SDL_SetError_REAL(ptr noundef nonnull @.str.27) #8
  br label %17

15:                                               ; preds = %3
  %16 = tail call zeroext i1 (ptr, ...) @SDL_SetError_REAL(ptr noundef nonnull @.str.28) #8
  br label %17

17:                                               ; preds = %9, %13, %15
  %.1.in = phi i1 [ %16, %15 ], [ %12, %9 ], [ %14, %13 ]
  ret i1 %.1.in
}